target datalayout = "e-m:e-p270:32:32-p271:32:32-p272:64:64-i64:64-i128:128-f80:128-n8:16:32:64-S128"
target triple = "x86_64-pc-linux-gnu"

@.str.17 = private unnamed_addr constant [5 x i8] c"bits\00", align 1
@.str.18 = private unnamed_addr constant [14 x i8] c"security-bits\00", align 1
@.str.19 = private unnamed_addr constant [9 x i8] c"max-size\00", align 1
@.str.20 = private unnamed_addr constant [15 x i8] c"default-digest\00", align 1
@.str.21 = private unnamed_addr constant [7 x i8] c"SHA256\00", align 1
@.str.22 = private unnamed_addr constant [5 x i8] c"priv\00", align 1
@.str.23 = private unnamed_addr constant [4 x i8] c"pub\00", align 1

; Function Attrs: nounwind uwtable
define internal i32 @dsa_key_todata(ptr noundef %0, ptr noundef %1, ptr noundef %2, i32 noundef %3) #0 {
  %5 = alloca i32, align 4
  %6 = alloca ptr, align 8
  %7 = alloca ptr, align 8
  %8 = alloca ptr, align 8
  %9 = alloca i32, align 4
  %10 = alloca ptr, align 8
  %11 = alloca ptr, align 8
  %12 = alloca i32, align 4
  store ptr %0, ptr %6, align 8, !tbaa !27
  store ptr %1, ptr %7, align 8, !tbaa !50
  store ptr %2, ptr %8, align 8, !tbaa !9
  store i32 %3, ptr %9, align 4, !tbaa !7
  call void @llvm.lifetime.start.p0(i64 8, ptr %10) #7
  store ptr null, ptr %10, align 8, !tbaa !49
  call void @llvm.lifetime.start.p0(i64 8, ptr %11) #7
  store ptr null, ptr %11, align 8, !tbaa !49
  %13 = load ptr, ptr %6, align 8, !tbaa !27
  %14 = icmp eq ptr %13, null
  br i1 %14, label %15, label %16

15:                                               ; preds = %4
  store i32 0, ptr %5, align 4
  store i32 1, ptr %12, align 4
  br label %41

16:                                               ; preds = %4
  %17 = load ptr, ptr %6, align 8, !tbaa !27
  call void @DSA_get0_key(ptr noundef %17, ptr noundef %11, ptr noundef %10)
  %18 = load i32, ptr %9, align 4, !tbaa !7
  %19 = icmp ne i32 %18, 0
  br i1 %19, label %20, label %30

20:                                               ; preds = %16
  %21 = load ptr, ptr %10, align 8, !tbaa !49
  %22 = icmp ne ptr %21, null
  br i1 %22, label %23, label %30

23:                                               ; preds = %20
  %24 = load ptr, ptr %7, align 8, !tbaa !50
  %25 = load ptr, ptr %8, align 8, !tbaa !9
  %26 = load ptr, ptr %10, align 8, !tbaa !49
  %27 = call i32 @ossl_param_build_set_bn(ptr noundef %24, ptr noundef %25, ptr noundef @.str.22, ptr noundef %26)
  %28 = icmp ne i32 %27, 0
  br i1 %28, label %30, label %29

29:                                               ; preds = %23
  store i32 0, ptr %5, align 4
  store i32 1, ptr %12, align 4
  br label %41

30:                                               ; preds = %23, %20, %16
  %31 = load ptr, ptr %11, align 8, !tbaa !49
  %32 = icmp ne ptr %31, null
  br i1 %32, label %33, label %40

33:                                               ; preds = %30
  %34 = load ptr, ptr %7, align 8, !tbaa !50
  %35 = load ptr, ptr %8, align 8, !tbaa !9
  %36 = load ptr, ptr %11, align 8, !tbaa !49
  %37 = call i32 @ossl_param_build_set_bn(ptr noundef %34, ptr noundef %35, ptr noundef @.str.23, ptr noundef %36)
  %38 = icmp ne i32 %37, 0
  br i1 %38, label %40, label %39

39:                                               ; preds = %33
  store i32 0, ptr %5, align 4
  store i32 1, ptr %12, align 4
  br label %41

40:                                               ; preds = %33, %30
  store i32 1, ptr %5, align 4
  store i32 1, ptr %12, align 4
  br label %41

41:                                               ; preds = %40, %39, %29, %15
  call void @llvm.lifetime.end.p0(i64 8, ptr %11) #7
  call void @llvm.lifetime.end.p0(i64 8, ptr %10) #7
  %42 = load i32, ptr %5, align 4
  ret i32 %42
}

; Function Attrs: inlinehint nounwind uwtable
define internal i32 @dsa_get_params(ptr noundef %0, ptr noundef %1) #1 {
  %3 = alloca i32, align 4
  %4 = alloca ptr, align 8
  %5 = alloca ptr, align 8
  %6 = alloca ptr, align 8
  %7 = alloca ptr, align 8
  %8 = alloca i32, align 4
  store ptr %0, ptr %4, align 8, !tbaa !3
  store ptr %1, ptr %5, align 8, !tbaa !9
  call void @llvm.lifetime.start.p0(i64 8, ptr %6) #7
  %9 = load ptr, ptr %4, align 8, !tbaa !3
  store ptr %9, ptr %6, align 8, !tbaa !27
  call void @llvm.lifetime.start.p0(i64 8, ptr %7) #7
  %10 = load ptr, ptr %5, align 8, !tbaa !9
  %11 = call ptr @OSSL_PARAM_locate(ptr noundef %10, ptr noundef @.str.17)
  store ptr %11, ptr %7, align 8, !tbaa !9
  %12 = icmp ne ptr %11, null
  br i1 %12, label %13, label %20

13:                                               ; preds = %2
  %14 = load ptr, ptr %7, align 8, !tbaa !9
  %15 = load ptr, ptr %6, align 8, !tbaa !27
  %16 = call i32 @DSA_bits(ptr noundef %15)
  %17 = call i32 @OSSL_PARAM_set_int(ptr noundef %14, i32 noundef %16)
  %18 = icmp ne i32 %17, 0
  br i1 %18, label %20, label %19

19:                                               ; preds = %13
  store i32 0, ptr %3, align 4
  store i32 1, ptr %8, align 4
  br label %65

20:                                               ; preds = %13, %2
  %21 = load ptr, ptr %5, align 8, !tbaa !9
  %22 = call ptr @OSSL_PARAM_locate(ptr noundef %21, ptr noundef @.str.18)
  store ptr %22, ptr %7, align 8, !tbaa !9
  %23 = icmp ne ptr %22, null
  br i1 %23, label %24, label %31

24:                                               ; preds = %20
  %25 = load ptr, ptr %7, align 8, !tbaa !9
  %26 = load ptr, ptr %6, align 8, !tbaa !27
  %27 = call i32 @DSA_security_bits(ptr noundef %26)
  %28 = call i32 @OSSL_PARAM_set_int(ptr noundef %25, i32 noundef %27)
  %29 = icmp ne i32 %28, 0
  br i1 %29, label %31, label %30

30:                                               ; preds = %24
  store i32 0, ptr %3, align 4
  store i32 1, ptr %8, align 4
  br label %65

31:                                               ; preds = %24, %20
  %32 = load ptr, ptr %5, align 8, !tbaa !9
  %33 = call ptr @OSSL_PARAM_locate(ptr noundef %32, ptr noundef @.str.19)
  store ptr %33, ptr %7, align 8, !tbaa !9
  %34 = icmp ne ptr %33, null
  br i1 %34, label %35, label %42

35:                                               ; preds = %31
  %36 = load ptr, ptr %7, align 8, !tbaa !9
  %37 = load ptr, ptr %6, align 8, !tbaa !27
  %38 = call i32 @DSA_size(ptr noundef %37)
  %39 = call i32 @OSSL_PARAM_set_int(ptr noundef %36, i32 noundef %38)
  %40 = icmp ne i32 %39, 0
  br i1 %40, label %42, label %41

41:                                               ; preds = %35
  store i32 0, ptr %3, align 4
  store i32 1, ptr %8, align 4
  br label %65

42:                                               ; preds = %35, %31
  %43 = load ptr, ptr %5, align 8, !tbaa !9
  %44 = call ptr @OSSL_PARAM_locate(ptr noundef %43, ptr noundef @.str.20)
  store ptr %44, ptr %7, align 8, !tbaa !9
  %45 = icmp ne ptr %44, null
  br i1 %45, label %46, label %51

46:                                               ; preds = %42
  %47 = load ptr, ptr %7, align 8, !tbaa !9
  %48 = call i32 @OSSL_PARAM_set_utf8_string(ptr noundef %47, ptr noundef @.str.21)
  %49 = icmp ne i32 %48, 0
  br i1 %49, label %51, label %50

50:                                               ; preds = %46
  store i32 0, ptr %3, align 4
  store i32 1, ptr %8, align 4
  br label %65

51:                                               ; preds = %46, %42
  %52 = load ptr, ptr %6, align 8, !tbaa !27
  %53 = call ptr @ossl_dsa_get0_params(ptr noundef %52)
  %54 = load ptr, ptr %5, align 8, !tbaa !9
  %55 = call i32 @ossl_ffc_params_todata(ptr noundef %53, ptr noundef null, ptr noundef %54)
  %56 = icmp ne i32 %55, 0
  br i1 %56, label %57, label %62

57:                                               ; preds = %51
  %58 = load ptr, ptr %6, align 8, !tbaa !27
  %59 = load ptr, ptr %5, align 8, !tbaa !9
  %60 = call i32 @dsa_key_todata(ptr noundef %58, ptr noundef null, ptr noundef %59, i32 noundef 1)
  %61 = icmp ne i32 %60, 0
  br label %62

62:                                               ; preds = %57, %51
  %63 = phi i1 [ false, %51 ], [ %61, %57 ]
  %64 = zext i1 %63 to i32
  store i32 %64, ptr %3, align 4
  store i32 1, ptr %8, align 4
  br label %65

65:                                               ; preds = %62, %50, %41, %30, %19
  call void @llvm.lifetime.end.p0(i64 8, ptr %7) #7
  call void @llvm.lifetime.end.p0(i64 8, ptr %6) #7
  %66 = load i32, ptr %3, align 4
  ret i32 %66
}