; Function Attrs: inlinehint nounwind uwtable
define internal range(i32 0, 2) i32 @dsa_get_params(ptr noundef %0, ptr noundef %1) #2 {
  %3 = alloca ptr, align 8
  %4 = alloca ptr, align 8
  %5 = tail call ptr @OSSL_PARAM_locate(ptr noundef %1, ptr noundef nonnull @.str.17) #7
  %.not = icmp eq ptr %5, null
  br i1 %.not, label %9, label %6

6:                                                ; preds = %2
  %7 = tail call i32 @DSA_bits(ptr noundef %0) #7
  %8 = tail call i32 @OSSL_PARAM_set_int(ptr noundef nonnull %5, i32 noundef %7) #7
  %.not20 = icmp eq i32 %8, 0
  br i1 %.not20, label %37, label %9

9:                                                ; preds = %6, %2
  %10 = tail call ptr @OSSL_PARAM_locate(ptr noundef %1, ptr noundef nonnull @.str.18) #7
  %.not21 = icmp eq ptr %10, null
  br i1 %.not21, label %14, label %11

11:                                               ; preds = %9
  %12 = tail call i32 @DSA_security_bits(ptr noundef %0) #7
  %13 = tail call i32 @OSSL_PARAM_set_int(ptr noundef nonnull %10, i32 noundef %12) #7
  %.not22 = icmp eq i32 %13, 0
  br i1 %.not22, label %37, label %14

14:                                               ; preds = %11, %9
  %15 = tail call ptr @OSSL_PARAM_locate(ptr noundef %1, ptr noundef nonnull @.str.19) #7
  %.not23 = icmp eq ptr %15, null
  br i1 %.not23, label %19, label %16

16:                                               ; preds = %14
  %17 = tail call i32 @DSA_size(ptr noundef %0) #7
  %18 = tail call i32 @OSSL_PARAM_set_int(ptr noundef nonnull %15, i32 noundef %17) #7
  %.not24 = icmp eq i32 %18, 0
  br i1 %.not24, label %37, label %19

19:                                               ; preds = %16, %14
  %20 = tail call ptr @OSSL_PARAM_locate(ptr noundef %1, ptr noundef nonnull @.str.20) #7
  %.not25 = icmp eq ptr %20, null
  br i1 %.not25, label %23, label %21

21:                                               ; preds = %19
  %22 = tail call i32 @OSSL_PARAM_set_utf8_string(ptr noundef nonnull %20, ptr noundef nonnull @.str.21) #7
  %.not26 = icmp eq i32 %22, 0
  br i1 %.not26, label %37, label %23

23:                                               ; preds = %21, %19
  %24 = tail call ptr @ossl_dsa_get0_params(ptr noundef %0) #7
  %25 = tail call i32 @ossl_ffc_params_todata(ptr noundef %24, ptr noundef null, ptr noundef %1) #7
  %.not27 = icmp eq i32 %25, 0
  br i1 %.not27, label %37, label %26

26:                                               ; preds = %23
  call void @llvm.lifetime.start.p0(i64 8, ptr nonnull %3) #7
  store ptr null, ptr %3, align 8, !tbaa !45
  call void @llvm.lifetime.start.p0(i64 8, ptr nonnull %4) #7
  store ptr null, ptr %4, align 8, !tbaa !45
  %27 = icmp eq ptr %0, null
  br i1 %27, label %dsa_key_todata.exit, label %28

28:                                               ; preds = %26
  call void @DSA_get0_key(ptr noundef nonnull %0, ptr noundef nonnull %4, ptr noundef nonnull %3) #7
  %29 = load ptr, ptr %3, align 8
  %.not28 = icmp eq ptr %29, null
  br i1 %.not28, label %32, label %30

30:                                               ; preds = %28
  %31 = call i32 @ossl_param_build_set_bn(ptr noundef null, ptr noundef %1, ptr noundef nonnull @.str.22, ptr noundef nonnull %29) #7
  %.not.i = icmp eq i32 %31, 0
  br i1 %.not.i, label %dsa_key_todata.exit, label %32

32:                                               ; preds = %30, %28
  %33 = load ptr, ptr %4, align 8, !tbaa !45
  %.not11.i = icmp eq ptr %33, null
  br i1 %.not11.i, label %36, label %34

34:                                               ; preds = %32
  %35 = call i32 @ossl_param_build_set_bn(ptr noundef null, ptr noundef %1, ptr noundef nonnull @.str.23, ptr noundef nonnull %33) #7
  %.not12.i = icmp eq i32 %35, 0
  br i1 %.not12.i, label %dsa_key_todata.exit, label %36

36:                                               ; preds = %34, %32
  br label %dsa_key_todata.exit

dsa_key_todata.exit:                              ; preds = %26, %30, %34, %36
  %.0.i = phi i32 [ 1, %36 ], [ 0, %26 ], [ 0, %30 ], [ 0, %34 ]
  call void @llvm.lifetime.end.p0(i64 8, ptr nonnull %4) #7
  call void @llvm.lifetime.end.p0(i64 8, ptr nonnull %3) #7
  br label %37

37:                                               ; preds = %23, %dsa_key_todata.exit, %21, %16, %11, %6
  %.0 = phi i32 [ 0, %6 ], [ 0, %11 ], [ 0, %16 ], [ 0, %21 ], [ 0, %23 ], [ %.0.i, %dsa_key_todata.exit ]
  ret i32 %.0
}